target datalayout = "e-m:e-p270:32:32-p271:32:32-p272:64:64-i64:64-i128:128-f80:128-n8:16:32:64-S128"
target triple = "x86_64-pc-linux-gnu"

%class.XErrno = type { i32 }
%class.XPhysicalMemoryBacking = type <{ i32, [4 x i8], i64, i64, i64, i64, i8, [7 x i8] }>

@_ZN11XLargePages6_stateE = external global i32, align 4

; Function Attrs: mustprogress nounwind uwtable
define hidden i32 @_ZNK22XPhysicalMemoryBacking31fallocate_compat_mmap_hugetlbfsEmmb(ptr noundef nonnull align 8 dereferenceable(41) %0, i64 noundef %1, i64 noundef %2, i1 noundef zeroext %3) #1 align 2 {
  %5 = alloca %class.XErrno, align 4
  %6 = alloca ptr, align 8
  %7 = alloca i64, align 8
  %8 = alloca i64, align 8
  %9 = alloca i8, align 1
  %10 = alloca ptr, align 8
  %11 = alloca ptr, align 8
  %12 = alloca ptr, align 8
  store ptr %0, ptr %6, align 8
  store i64 %1, ptr %7, align 8
  store i64 %2, ptr %8, align 8
  %13 = zext i1 %3 to i8
  store i8 %13, ptr %9, align 1
  %14 = load ptr, ptr %6, align 8
  %15 = load i64, ptr %8, align 8
  %16 = getelementptr inbounds %class.XPhysicalMemoryBacking, ptr %14, i32 0, i32 0
  %17 = load i32, ptr %16, align 8
  %18 = load i64, ptr %7, align 8
  %19 = call ptr @mmap64(ptr noundef null, i64 noundef %15, i32 noundef 3, i32 noundef 1, i32 noundef %17, i64 noundef %18) #8
  store ptr %19, ptr %10, align 8
  %20 = load ptr, ptr %10, align 8
  %21 = icmp eq ptr %20, inttoptr (i64 -1 to ptr)
  br i1 %21, label %22, label %25

22:                                               ; preds = %4
  %23 = call ptr @__errno_location() #9
  %24 = load i32, ptr %23, align 4
  call void @_ZN6XErrnoC1Ei(ptr noundef nonnull align 4 dereferenceable(4) %5, i32 noundef %24)
  br label %46

25:                                               ; preds = %4
  %26 = load i8, ptr %9, align 1
  %27 = trunc i8 %26 to i1
  br i1 %27, label %28, label %37

28:                                               ; preds = %25
  %29 = load ptr, ptr %10, align 8
  store ptr %29, ptr %11, align 8
  %30 = load ptr, ptr %11, align 8
  %31 = load i64, ptr %8, align 8
  %32 = getelementptr inbounds i8, ptr %30, i64 %31
  store ptr %32, ptr %12, align 8
  %33 = load ptr, ptr %11, align 8
  %34 = load ptr, ptr %12, align 8
  %35 = getelementptr inbounds %class.XPhysicalMemoryBacking, ptr %14, i32 0, i32 4
  %36 = load i64, ptr %35, align 8
  call void @_ZN2os15pretouch_memoryEPvS0_m(ptr noundef %33, ptr noundef %34, i64 noundef %36)
  br label %37

37:                                               ; preds = %28, %25
  %38 = load ptr, ptr %10, align 8
  %39 = load i64, ptr %8, align 8
  %40 = call i32 @munmap(ptr noundef %38, i64 noundef %39) #8
  %41 = icmp eq i32 %40, -1
  br i1 %41, label %42, label %45

42:                                               ; preds = %37
  %43 = call ptr @__errno_location() #9
  %44 = load i32, ptr %43, align 4
  call void @_ZN6XErrnoC1Ei(ptr noundef nonnull align 4 dereferenceable(4) %5, i32 noundef %44)
  br label %46

45:                                               ; preds = %37
  call void @_ZN6XErrnoC1Ei(ptr noundef nonnull align 4 dereferenceable(4) %5, i32 noundef 0)
  br label %46

46:                                               ; preds = %45, %42, %22
  %47 = getelementptr inbounds %class.XErrno, ptr %5, i32 0, i32 0
  %48 = load i32, ptr %47, align 4
  ret i32 %48
}

; Function Attrs: mustprogress nounwind uwtable
define linkonce_odr hidden noundef zeroext i1 @_ZN11XLargePages11is_explicitEv() #1 comdat align 2 {
  %1 = load i32, ptr @_ZN11XLargePages6_stateE, align 4
  %2 = icmp eq i32 %1, 1
  ret i1 %2
}

; Function Attrs: mustprogress nounwind uwtable
define hidden i32 @_ZNK22XPhysicalMemoryBacking20fallocate_punch_holeEmm(ptr noundef nonnull align 8 dereferenceable(41) %0, i64 noundef %1, i64 noundef %2) #1 align 2 {
  %4 = alloca %class.XErrno, align 4
  %5 = alloca ptr, align 8
  %6 = alloca i64, align 8
  %7 = alloca i64, align 8
  %8 = alloca i32, align 4
  store ptr %0, ptr %5, align 8
  store i64 %1, ptr %6, align 8
  store i64 %2, ptr %7, align 8
  %9 = load ptr, ptr %5, align 8
  %10 = call noundef zeroext i1 @_ZN11XLargePages11is_explicitEv()
  br i1 %10, label %11, label %19

11:                                               ; preds = %3
  %12 = load i64, ptr %6, align 8
  %13 = load i64, ptr %7, align 8
  %14 = call i32 @_ZNK22XPhysicalMemoryBacking31fallocate_compat_mmap_hugetlbfsEmmb(ptr noundef nonnull align 8 dereferenceable(41) %9, i64 noundef %12, i64 noundef %13, i1 noundef zeroext true)
  %15 = getelementptr inbounds %class.XErrno, ptr %4, i32 0, i32 0
  store i32 %14, ptr %15, align 4
  %16 = call noundef zeroext i1 @_ZNK6XErrnocvbEv(ptr noundef nonnull align 4 dereferenceable(4) %4)
  br i1 %16, label %17, label %18

17:                                               ; preds = %11
  br label %30

18:                                               ; preds = %11
  br label %19

19:                                               ; preds = %18, %3
  store i32 3, ptr %8, align 4
  %20 = getelementptr inbounds %class.XPhysicalMemoryBacking, ptr %9, i32 0, i32 0
  %21 = load i32, ptr %20, align 8
  %22 = load i64, ptr %6, align 8
  %23 = load i64, ptr %7, align 8
  %24 = call noundef i32 @_ZN8XSyscall9fallocateEiimm(i32 noundef %21, i32 noundef 3, i64 noundef %22, i64 noundef %23)
  %25 = icmp eq i32 %24, -1
  br i1 %25, label %26, label %29

26:                                               ; preds = %19
  %27 = call ptr @__errno_location() #9
  %28 = load i32, ptr %27, align 4
  call void @_ZN6XErrnoC1Ei(ptr noundef nonnull align 4 dereferenceable(4) %4, i32 noundef %28)
  br label %30

29:                                               ; preds = %19
  call void @_ZN6XErrnoC1Ei(ptr noundef nonnull align 4 dereferenceable(4) %4, i32 noundef 0)
  br label %30

30:                                               ; preds = %29, %26, %17
  %31 = getelementptr inbounds %class.XErrno, ptr %4, i32 0, i32 0
  %32 = load i32, ptr %31, align 4
  ret i32 %32
}