; Function Attrs: mustprogress nounwind uwtable
define hidden i32 @_ZNK22XPhysicalMemoryBacking20fallocate_punch_holeEmm(ptr nocapture noundef nonnull readonly align 8 dereferenceable(41) %0, i64 noundef %1, i64 noundef %2) local_unnamed_addr #0 align 2 {
  %4 = alloca %class.XErrno, align 4
  %5 = load i32, ptr @_ZN11XLargePages6_stateE, align 4
  %6 = icmp eq i32 %5, 1
  br i1 %6, label %7, label %20

7:                                                ; preds = %3
  %8 = load i32, ptr %0, align 8
  %9 = tail call ptr @mmap64(ptr noundef null, i64 noundef %2, i32 noundef 3, i32 noundef 1, i32 noundef %8, i64 noundef %1) #12
  %10 = icmp eq ptr %9, inttoptr (i64 -1 to ptr)
  br i1 %10, label %.sink.split.i, label %11

11:                                               ; preds = %7
  %12 = getelementptr inbounds i8, ptr %9, i64 %2
  %13 = getelementptr inbounds i8, ptr %0, i64 24
  %14 = load i64, ptr %13, align 8
  tail call void @_ZN2os15pretouch_memoryEPvS0_m(ptr noundef %9, ptr noundef %12, i64 noundef %14) #12
  %15 = tail call i32 @munmap(ptr noundef %9, i64 noundef %2) #12
  %16 = icmp eq i32 %15, -1
  br i1 %16, label %.sink.split.i, label %_ZNK22XPhysicalMemoryBacking31fallocate_compat_mmap_hugetlbfsEmmb.exit

.sink.split.i:                                    ; preds = %11, %7
  %17 = tail call ptr @__errno_location() #13
  %18 = load i32, ptr %17, align 4
  br label %_ZNK22XPhysicalMemoryBacking31fallocate_compat_mmap_hugetlbfsEmmb.exit

_ZNK22XPhysicalMemoryBacking31fallocate_compat_mmap_hugetlbfsEmmb.exit: ; preds = %11, %.sink.split.i
  %.sink.i = phi i32 [ 0, %11 ], [ %18, %.sink.split.i ]
  call void @_ZN6XErrnoC1Ei(ptr noundef nonnull align 4 dereferenceable(4) %4, i32 noundef %.sink.i) #12
  %19 = call noundef zeroext i1 @_ZNK6XErrnocvbEv(ptr noundef nonnull align 4 dereferenceable(4) %4) #12
  br i1 %19, label %27, label %20

20:                                               ; preds = %_ZNK22XPhysicalMemoryBacking31fallocate_compat_mmap_hugetlbfsEmmb.exit, %3
  %21 = load i32, ptr %0, align 8
  %22 = call noundef i32 @_ZN8XSyscall9fallocateEiimm(i32 noundef %21, i32 noundef 3, i64 noundef %1, i64 noundef %2) #12
  %23 = icmp eq i32 %22, -1
  br i1 %23, label %24, label %.sink.split

24:                                               ; preds = %20
  %25 = tail call ptr @__errno_location() #13
  %26 = load i32, ptr %25, align 4
  br label %.sink.split

.sink.split:                                      ; preds = %20, %24
  %.sink = phi i32 [ %26, %24 ], [ 0, %20 ]
  call void @_ZN6XErrnoC1Ei(ptr noundef nonnull align 4 dereferenceable(4) %4, i32 noundef %.sink) #12
  br label %27

27:                                               ; preds = %.sink.split, %_ZNK22XPhysicalMemoryBacking31fallocate_compat_mmap_hugetlbfsEmmb.exit
  %28 = load i32, ptr %4, align 4
  ret i32 %28
}